
firmware.bin:     file format binary


Disassembly of section .data:

08000000 <.data>:
 8000000:	2800      	cmp	r0, #0
 8000002:	2000      	movs	r0, #0
 8000004:	0179      	lsls	r1, r7, #5
 8000006:	0800      	lsrs	r0, r0, #32
	...
 80000f0:	b480      	push	{r7}
 80000f2:	b083      	sub	sp, #12
 80000f4:	af00      	add	r7, sp, #0
 80000f6:	6078      	str	r0, [r7, #4]
 80000f8:	e002      	b.n	0x8000100
 80000fa:	687b      	ldr	r3, [r7, #4]
 80000fc:	3b01      	subs	r3, #1
 80000fe:	607b      	str	r3, [r7, #4]
 8000100:	687b      	ldr	r3, [r7, #4]
 8000102:	2b00      	cmp	r3, #0
 8000104:	d1f9      	bne.n	0x80000fa
 8000106:	bf00      	nop
 8000108:	bf00      	nop
 800010a:	370c      	adds	r7, #12
 800010c:	46bd      	mov	sp, r7
 800010e:	bc80      	pop	{r7}
 8000110:	4770      	bx	lr
 8000112:	b580      	push	{r7, lr}
 8000114:	af00      	add	r7, sp, #0
 8000116:	f000 f943 	bl	0x80003a0
 800011a:	2300      	movs	r3, #0
 800011c:	2201      	movs	r2, #1
 800011e:	2100      	movs	r1, #0
 8000120:	4812      	ldr	r0, [pc, #72]	@ (0x800016c)
 8000122:	f000 f86b 	bl	0x80001fc
 8000126:	2300      	movs	r3, #0
 8000128:	2201      	movs	r2, #1
 800012a:	2101      	movs	r1, #1
 800012c:	480f      	ldr	r0, [pc, #60]	@ (0x800016c)
 800012e:	f000 f865 	bl	0x80001fc
 8000132:	2300      	movs	r3, #0
 8000134:	2201      	movs	r2, #1
 8000136:	2102      	movs	r1, #2
 8000138:	480c      	ldr	r0, [pc, #48]	@ (0x800016c)
 800013a:	f000 f85f 	bl	0x80001fc
 800013e:	2300      	movs	r3, #0
 8000140:	2201      	movs	r2, #1
 8000142:	210d      	movs	r1, #13
 8000144:	480a      	ldr	r0, [pc, #40]	@ (0x8000170)
 8000146:	f000 f859 	bl	0x80001fc
 800014a:	2102      	movs	r1, #2
 800014c:	4807      	ldr	r0, [pc, #28]	@ (0x800016c)
 800014e:	f000 f8ba 	bl	0x80002c6
 8000152:	2101      	movs	r1, #1
 8000154:	4805      	ldr	r0, [pc, #20]	@ (0x800016c)
 8000156:	f000 f8b6 	bl	0x80002c6
 800015a:	2100      	movs	r1, #0
 800015c:	4803      	ldr	r0, [pc, #12]	@ (0x800016c)
 800015e:	f000 f8b2 	bl	0x80002c6
 8000162:	4804      	ldr	r0, [pc, #16]	@ (0x8000174)
 8000164:	f7ff ffc4 	bl	0x80000f0
 8000168:	e7ef      	b.n	0x800014a
 800016a:	bf00      	nop
 800016c:	0800      	lsrs	r0, r0, #32
 800016e:	4001      	ands	r1, r0
 8000170:	1000      	asrs	r0, r0, #32
 8000172:	4001      	ands	r1, r0
 8000174:	4240      	negs	r0, r0
 8000176:	000f      	movs	r7, r1
 8000178:	b580      	push	{r7, lr}
 800017a:	b088      	sub	sp, #32
 800017c:	af00      	add	r7, sp, #0
 800017e:	4b1a      	ldr	r3, [pc, #104]	@ (0x80001e8)
 8000180:	617b      	str	r3, [r7, #20]
 8000182:	4b1a      	ldr	r3, [pc, #104]	@ (0x80001ec)
 8000184:	613b      	str	r3, [r7, #16]
 8000186:	4b1a      	ldr	r3, [pc, #104]	@ (0x80001f0)
 8000188:	60fb      	str	r3, [r7, #12]
 800018a:	4b1a      	ldr	r3, [pc, #104]	@ (0x80001f4)
 800018c:	60bb      	str	r3, [r7, #8]
 800018e:	4b1a      	ldr	r3, [pc, #104]	@ (0x80001f8)
 8000190:	607b      	str	r3, [r7, #4]
 8000192:	2300      	movs	r3, #0
 8000194:	61fb      	str	r3, [r7, #28]
 8000196:	e007      	b.n	0x80001a8
 8000198:	69fb      	ldr	r3, [r7, #28]
 800019a:	697a      	ldr	r2, [r7, #20]
 800019c:	4413      	add	r3, r2
 800019e:	2200      	movs	r2, #0
 80001a0:	701a      	strb	r2, [r3, #0]
 80001a2:	69fb      	ldr	r3, [r7, #28]
 80001a4:	3301      	adds	r3, #1
 80001a6:	61fb      	str	r3, [r7, #28]
 80001a8:	69fb      	ldr	r3, [r7, #28]
 80001aa:	697a      	ldr	r2, [r7, #20]
 80001ac:	4413      	add	r3, r2
 80001ae:	693a      	ldr	r2, [r7, #16]
 80001b0:	429a      	cmp	r2, r3
 80001b2:	d8f1      	bhi.n	0x8000198
 80001b4:	2300      	movs	r3, #0
 80001b6:	61bb      	str	r3, [r7, #24]
 80001b8:	e00a      	b.n	0x80001d0
 80001ba:	687a      	ldr	r2, [r7, #4]
 80001bc:	69bb      	ldr	r3, [r7, #24]
 80001be:	441a      	add	r2, r3
 80001c0:	68f9      	ldr	r1, [r7, #12]
 80001c2:	69bb      	ldr	r3, [r7, #24]
 80001c4:	440b      	add	r3, r1
 80001c6:	7812      	ldrb	r2, [r2, #0]
 80001c8:	701a      	strb	r2, [r3, #0]
 80001ca:	69bb      	ldr	r3, [r7, #24]
 80001cc:	3301      	adds	r3, #1
 80001ce:	61bb      	str	r3, [r7, #24]
 80001d0:	68fa      	ldr	r2, [r7, #12]
 80001d2:	69bb      	ldr	r3, [r7, #24]
 80001d4:	4413      	add	r3, r2
 80001d6:	68ba      	ldr	r2, [r7, #8]
 80001d8:	429a      	cmp	r2, r3
 80001da:	d8ee      	bhi.n	0x80001ba
 80001dc:	f7ff ff99 	bl	0x8000112
 80001e0:	bf00      	nop
 80001e2:	3720      	adds	r7, #32
 80001e4:	46bd      	mov	sp, r7
 80001e6:	bd80      	pop	{r7, pc}
 80001e8:	0000      	movs	r0, r0
 80001ea:	2000      	movs	r0, #0
 80001ec:	0000      	movs	r0, r0
 80001ee:	2000      	movs	r0, #0
 80001f0:	0000      	movs	r0, r0
 80001f2:	2000      	movs	r0, #0
 80001f4:	0000      	movs	r0, r0
 80001f6:	2000      	movs	r0, #0
 80001f8:	062c      	lsls	r4, r5, #24
 80001fa:	0800      	lsrs	r0, r0, #32
 80001fc:	b480      	push	{r7}
 80001fe:	b087      	sub	sp, #28
 8000200:	af00      	add	r7, sp, #0
 8000202:	60f8      	str	r0, [r7, #12]
 8000204:	60b9      	str	r1, [r7, #8]
 8000206:	607a      	str	r2, [r7, #4]
 8000208:	603b      	str	r3, [r7, #0]
 800020a:	68bb      	ldr	r3, [r7, #8]
 800020c:	f003 0307 	and.w	r3, r3, #7
 8000210:	617b      	str	r3, [r7, #20]
 8000212:	683b      	ldr	r3, [r7, #0]
 8000214:	009b      	lsls	r3, r3, #2
 8000216:	687a      	ldr	r2, [r7, #4]
 8000218:	4313      	orrs	r3, r2
 800021a:	613b      	str	r3, [r7, #16]
 800021c:	68bb      	ldr	r3, [r7, #8]
 800021e:	2b07      	cmp	r3, #7
 8000220:	d815      	bhi.n	0x800024e
 8000222:	68fb      	ldr	r3, [r7, #12]
 8000224:	681b      	ldr	r3, [r3, #0]
 8000226:	697a      	ldr	r2, [r7, #20]
 8000228:	0092      	lsls	r2, r2, #2
 800022a:	210f      	movs	r1, #15
 800022c:	fa01 f202 	lsl.w	r2, r1, r2
 8000230:	43d2      	mvns	r2, r2
 8000232:	401a      	ands	r2, r3
 8000234:	68fb      	ldr	r3, [r7, #12]
 8000236:	601a      	str	r2, [r3, #0]
 8000238:	68fb      	ldr	r3, [r7, #12]
 800023a:	681a      	ldr	r2, [r3, #0]
 800023c:	697b      	ldr	r3, [r7, #20]
 800023e:	009b      	lsls	r3, r3, #2
 8000240:	6939      	ldr	r1, [r7, #16]
 8000242:	fa01 f303 	lsl.w	r3, r1, r3
 8000246:	431a      	orrs	r2, r3
 8000248:	68fb      	ldr	r3, [r7, #12]
 800024a:	601a      	str	r2, [r3, #0]
 800024c:	e014      	b.n	0x8000278
 800024e:	68fb      	ldr	r3, [r7, #12]
 8000250:	685b      	ldr	r3, [r3, #4]
 8000252:	697a      	ldr	r2, [r7, #20]
 8000254:	0092      	lsls	r2, r2, #2
 8000256:	210f      	movs	r1, #15
 8000258:	fa01 f202 	lsl.w	r2, r1, r2
 800025c:	43d2      	mvns	r2, r2
 800025e:	401a      	ands	r2, r3
 8000260:	68fb      	ldr	r3, [r7, #12]
 8000262:	605a      	str	r2, [r3, #4]
 8000264:	68fb      	ldr	r3, [r7, #12]
 8000266:	685a      	ldr	r2, [r3, #4]
 8000268:	697b      	ldr	r3, [r7, #20]
 800026a:	009b      	lsls	r3, r3, #2
 800026c:	6939      	ldr	r1, [r7, #16]
 800026e:	fa01 f303 	lsl.w	r3, r1, r3
 8000272:	431a      	orrs	r2, r3
 8000274:	68fb      	ldr	r3, [r7, #12]
 8000276:	605a      	str	r2, [r3, #4]
 8000278:	bf00      	nop
 800027a:	371c      	adds	r7, #28
 800027c:	46bd      	mov	sp, r7
 800027e:	bc80      	pop	{r7}
 8000280:	4770      	bx	lr
 8000282:	b480      	push	{r7}
 8000284:	b085      	sub	sp, #20
 8000286:	af00      	add	r7, sp, #0
 8000288:	60f8      	str	r0, [r7, #12]
 800028a:	60b9      	str	r1, [r7, #8]
 800028c:	607a      	str	r2, [r7, #4]
 800028e:	687b      	ldr	r3, [r7, #4]
 8000290:	2b00      	cmp	r3, #0
 8000292:	d009      	beq.n	0x80002a8
 8000294:	68fb      	ldr	r3, [r7, #12]
 8000296:	68db      	ldr	r3, [r3, #12]
 8000298:	2101      	movs	r1, #1
 800029a:	68ba      	ldr	r2, [r7, #8]
 800029c:	fa01 f202 	lsl.w	r2, r1, r2
 80002a0:	431a      	orrs	r2, r3
 80002a2:	68fb      	ldr	r3, [r7, #12]
 80002a4:	60da      	str	r2, [r3, #12]
 80002a6:	e009      	b.n	0x80002bc
 80002a8:	68fb      	ldr	r3, [r7, #12]
 80002aa:	68db      	ldr	r3, [r3, #12]
 80002ac:	2101      	movs	r1, #1
 80002ae:	68ba      	ldr	r2, [r7, #8]
 80002b0:	fa01 f202 	lsl.w	r2, r1, r2
 80002b4:	43d2      	mvns	r2, r2
 80002b6:	401a      	ands	r2, r3
 80002b8:	68fb      	ldr	r3, [r7, #12]
 80002ba:	60da      	str	r2, [r3, #12]
 80002bc:	bf00      	nop
 80002be:	3714      	adds	r7, #20
 80002c0:	46bd      	mov	sp, r7
 80002c2:	bc80      	pop	{r7}
 80002c4:	4770      	bx	lr
 80002c6:	b480      	push	{r7}
 80002c8:	b083      	sub	sp, #12
 80002ca:	af00      	add	r7, sp, #0
 80002cc:	6078      	str	r0, [r7, #4]
 80002ce:	6039      	str	r1, [r7, #0]
 80002d0:	687b      	ldr	r3, [r7, #4]
 80002d2:	68db      	ldr	r3, [r3, #12]
 80002d4:	2101      	movs	r1, #1
 80002d6:	683a      	ldr	r2, [r7, #0]
 80002d8:	fa01 f202 	lsl.w	r2, r1, r2
 80002dc:	405a      	eors	r2, r3
 80002de:	687b      	ldr	r3, [r7, #4]
 80002e0:	60da      	str	r2, [r3, #12]
 80002e2:	bf00      	nop
 80002e4:	370c      	adds	r7, #12
 80002e6:	46bd      	mov	sp, r7
 80002e8:	bc80      	pop	{r7}
 80002ea:	4770      	bx	lr
 80002ec:	b480      	push	{r7}
 80002ee:	b083      	sub	sp, #12
 80002f0:	af00      	add	r7, sp, #0
 80002f2:	6078      	str	r0, [r7, #4]
 80002f4:	6039      	str	r1, [r7, #0]
 80002f6:	687b      	ldr	r3, [r7, #4]
 80002f8:	689a      	ldr	r2, [r3, #8]
 80002fa:	683b      	ldr	r3, [r7, #0]
 80002fc:	fa22 f303 	lsr.w	r3, r2, r3
 8000300:	f003 0301 	and.w	r3, r3, #1
 8000304:	4618      	mov	r0, r3
 8000306:	370c      	adds	r7, #12
 8000308:	46bd      	mov	sp, r7
 800030a:	bc80      	pop	{r7}
 800030c:	4770      	bx	lr
 800030e:	b480      	push	{r7}
 8000310:	b083      	sub	sp, #12
 8000312:	af00      	add	r7, sp, #0
 8000314:	6078      	str	r0, [r7, #4]
 8000316:	6039      	str	r1, [r7, #0]
 8000318:	2201      	movs	r2, #1
 800031a:	683b      	ldr	r3, [r7, #0]
 800031c:	fa02 f303 	lsl.w	r3, r2, r3
 8000320:	461a      	mov	r2, r3
 8000322:	687b      	ldr	r3, [r7, #4]
 8000324:	611a      	str	r2, [r3, #16]
 8000326:	bf00      	nop
 8000328:	370c      	adds	r7, #12
 800032a:	46bd      	mov	sp, r7
 800032c:	bc80      	pop	{r7}
 800032e:	4770      	bx	lr
 8000330:	b480      	push	{r7}
 8000332:	b083      	sub	sp, #12
 8000334:	af00      	add	r7, sp, #0
 8000336:	6078      	str	r0, [r7, #4]
 8000338:	6039      	str	r1, [r7, #0]
 800033a:	2201      	movs	r2, #1
 800033c:	683b      	ldr	r3, [r7, #0]
 800033e:	fa02 f303 	lsl.w	r3, r2, r3
 8000342:	461a      	mov	r2, r3
 8000344:	687b      	ldr	r3, [r7, #4]
 8000346:	615a      	str	r2, [r3, #20]
 8000348:	bf00      	nop
 800034a:	370c      	adds	r7, #12
 800034c:	46bd      	mov	sp, r7
 800034e:	bc80      	pop	{r7}
 8000350:	4770      	bx	lr
 8000352:	b480      	push	{r7}
 8000354:	b083      	sub	sp, #12
 8000356:	af00      	add	r7, sp, #0
 8000358:	6078      	str	r0, [r7, #4]
 800035a:	6039      	str	r1, [r7, #0]
 800035c:	687b      	ldr	r3, [r7, #4]
 800035e:	699b      	ldr	r3, [r3, #24]
 8000360:	2101      	movs	r1, #1
 8000362:	683a      	ldr	r2, [r7, #0]
 8000364:	fa01 f202 	lsl.w	r2, r1, r2
 8000368:	431a      	orrs	r2, r3
 800036a:	687b      	ldr	r3, [r7, #4]
 800036c:	619a      	str	r2, [r3, #24]
 800036e:	bf00      	nop
 8000370:	370c      	adds	r7, #12
 8000372:	46bd      	mov	sp, r7
 8000374:	bc80      	pop	{r7}
 8000376:	4770      	bx	lr
 8000378:	b480      	push	{r7}
 800037a:	b083      	sub	sp, #12
 800037c:	af00      	add	r7, sp, #0
 800037e:	6078      	str	r0, [r7, #4]
 8000380:	6039      	str	r1, [r7, #0]
 8000382:	687b      	ldr	r3, [r7, #4]
 8000384:	699b      	ldr	r3, [r3, #24]
 8000386:	2101      	movs	r1, #1
 8000388:	683a      	ldr	r2, [r7, #0]
 800038a:	fa01 f202 	lsl.w	r2, r1, r2
 800038e:	43d2      	mvns	r2, r2
 8000390:	401a      	ands	r2, r3
 8000392:	687b      	ldr	r3, [r7, #4]
 8000394:	619a      	str	r2, [r3, #24]
 8000396:	bf00      	nop
 8000398:	370c      	adds	r7, #12
 800039a:	46bd      	mov	sp, r7
 800039c:	bc80      	pop	{r7}
 800039e:	4770      	bx	lr
 80003a0:	b480      	push	{r7}
 80003a2:	af00      	add	r7, sp, #0
 80003a4:	4b0a      	ldr	r3, [pc, #40]	@ (0x80003d0)
 80003a6:	681b      	ldr	r3, [r3, #0]
 80003a8:	4a09      	ldr	r2, [pc, #36]	@ (0x80003d0)
 80003aa:	f043 0301 	orr.w	r3, r3, #1
 80003ae:	6013      	str	r3, [r2, #0]
 80003b0:	4b07      	ldr	r3, [pc, #28]	@ (0x80003d0)
 80003b2:	685b      	ldr	r3, [r3, #4]
 80003b4:	4a06      	ldr	r2, [pc, #24]	@ (0x80003d0)
 80003b6:	f023 0303 	bic.w	r3, r3, #3
 80003ba:	6053      	str	r3, [r2, #4]
 80003bc:	4b04      	ldr	r3, [pc, #16]	@ (0x80003d0)
 80003be:	699b      	ldr	r3, [r3, #24]
 80003c0:	4a03      	ldr	r2, [pc, #12]	@ (0x80003d0)
 80003c2:	f043 031c 	orr.w	r3, r3, #28
 80003c6:	6193      	str	r3, [r2, #24]
 80003c8:	bf00      	nop
 80003ca:	46bd      	mov	sp, r7
 80003cc:	bc80      	pop	{r7}
 80003ce:	4770      	bx	lr
 80003d0:	1000      	asrs	r0, r0, #32
 80003d2:	4002      	ands	r2, r0
 80003d4:	b480      	push	{r7}
 80003d6:	b083      	sub	sp, #12
 80003d8:	af00      	add	r7, sp, #0
 80003da:	6078      	str	r0, [r7, #4]
 80003dc:	687b      	ldr	r3, [r7, #4]
 80003de:	2b02      	cmp	r3, #2
 80003e0:	d017      	beq.n	0x8000412
 80003e2:	687b      	ldr	r3, [r7, #4]
 80003e4:	2b02      	cmp	r3, #2
 80003e6:	d81a      	bhi.n	0x800041e
 80003e8:	687b      	ldr	r3, [r7, #4]
 80003ea:	2b00      	cmp	r3, #0
 80003ec:	d003      	beq.n	0x80003f6
 80003ee:	687b      	ldr	r3, [r7, #4]
 80003f0:	2b01      	cmp	r3, #1
 80003f2:	d007      	beq.n	0x8000404
 80003f4:	e013      	b.n	0x800041e
 80003f6:	4b13      	ldr	r3, [pc, #76]	@ (0x8000444)
 80003f8:	681b      	ldr	r3, [r3, #0]
 80003fa:	4a12      	ldr	r2, [pc, #72]	@ (0x8000444)
 80003fc:	f043 0301 	orr.w	r3, r3, #1
 8000400:	6013      	str	r3, [r2, #0]
 8000402:	e00d      	b.n	0x8000420
 8000404:	4b0f      	ldr	r3, [pc, #60]	@ (0x8000444)
 8000406:	681b      	ldr	r3, [r3, #0]
 8000408:	4a0e      	ldr	r2, [pc, #56]	@ (0x8000444)
 800040a:	f443 3380 	orr.w	r3, r3, #65536	@ 0x10000
 800040e:	6013      	str	r3, [r2, #0]
 8000410:	e006      	b.n	0x8000420
 8000412:	4b0c      	ldr	r3, [pc, #48]	@ (0x8000444)
 8000414:	681b      	ldr	r3, [r3, #0]
 8000416:	4a0b      	ldr	r2, [pc, #44]	@ (0x8000444)
 8000418:	f043 7380 	orr.w	r3, r3, #16777216	@ 0x1000000
 800041c:	6013      	str	r3, [r2, #0]
 800041e:	bf00      	nop
 8000420:	4b08      	ldr	r3, [pc, #32]	@ (0x8000444)
 8000422:	685b      	ldr	r3, [r3, #4]
 8000424:	4a07      	ldr	r2, [pc, #28]	@ (0x8000444)
 8000426:	f023 0303 	bic.w	r3, r3, #3
 800042a:	6053      	str	r3, [r2, #4]
 800042c:	4b05      	ldr	r3, [pc, #20]	@ (0x8000444)
 800042e:	685a      	ldr	r2, [r3, #4]
 8000430:	4904      	ldr	r1, [pc, #16]	@ (0x8000444)
 8000432:	687b      	ldr	r3, [r7, #4]
 8000434:	4313      	orrs	r3, r2
 8000436:	604b      	str	r3, [r1, #4]
 8000438:	bf00      	nop
 800043a:	370c      	adds	r7, #12
 800043c:	46bd      	mov	sp, r7
 800043e:	bc80      	pop	{r7}
 8000440:	4770      	bx	lr
 8000442:	bf00      	nop
 8000444:	1000      	asrs	r0, r0, #32
 8000446:	4002      	ands	r2, r0
 8000448:	b480      	push	{r7}
 800044a:	b083      	sub	sp, #12
 800044c:	af00      	add	r7, sp, #0
 800044e:	6078      	str	r0, [r7, #4]
 8000450:	4b07      	ldr	r3, [pc, #28]	@ (0x8000470)
 8000452:	69db      	ldr	r3, [r3, #28]
 8000454:	2101      	movs	r1, #1
 8000456:	687a      	ldr	r2, [r7, #4]
 8000458:	fa01 f202 	lsl.w	r2, r1, r2
 800045c:	4611      	mov	r1, r2
 800045e:	4a04      	ldr	r2, [pc, #16]	@ (0x8000470)
 8000460:	430b      	orrs	r3, r1
 8000462:	61d3      	str	r3, [r2, #28]
 8000464:	bf00      	nop
 8000466:	370c      	adds	r7, #12
 8000468:	46bd      	mov	sp, r7
 800046a:	bc80      	pop	{r7}
 800046c:	4770      	bx	lr
 800046e:	bf00      	nop
 8000470:	1000      	asrs	r0, r0, #32
 8000472:	4002      	ands	r2, r0
 8000474:	b480      	push	{r7}
 8000476:	b083      	sub	sp, #12
 8000478:	af00      	add	r7, sp, #0
 800047a:	6078      	str	r0, [r7, #4]
 800047c:	4b07      	ldr	r3, [pc, #28]	@ (0x800049c)
 800047e:	699b      	ldr	r3, [r3, #24]
 8000480:	2101      	movs	r1, #1
 8000482:	687a      	ldr	r2, [r7, #4]
 8000484:	fa01 f202 	lsl.w	r2, r1, r2
 8000488:	4611      	mov	r1, r2
 800048a:	4a04      	ldr	r2, [pc, #16]	@ (0x800049c)
 800048c:	430b      	orrs	r3, r1
 800048e:	6193      	str	r3, [r2, #24]
 8000490:	bf00      	nop
 8000492:	370c      	adds	r7, #12
 8000494:	46bd      	mov	sp, r7
 8000496:	bc80      	pop	{r7}
 8000498:	4770      	bx	lr
 800049a:	bf00      	nop
 800049c:	1000      	asrs	r0, r0, #32
 800049e:	4002      	ands	r2, r0
 80004a0:	b480      	push	{r7}
 80004a2:	b083      	sub	sp, #12
 80004a4:	af00      	add	r7, sp, #0
 80004a6:	6078      	str	r0, [r7, #4]
 80004a8:	4b07      	ldr	r3, [pc, #28]	@ (0x80004c8)
 80004aa:	695b      	ldr	r3, [r3, #20]
 80004ac:	2101      	movs	r1, #1
 80004ae:	687a      	ldr	r2, [r7, #4]
 80004b0:	fa01 f202 	lsl.w	r2, r1, r2
 80004b4:	4611      	mov	r1, r2
 80004b6:	4a04      	ldr	r2, [pc, #16]	@ (0x80004c8)
 80004b8:	430b      	orrs	r3, r1
 80004ba:	6153      	str	r3, [r2, #20]
 80004bc:	bf00      	nop
 80004be:	370c      	adds	r7, #12
 80004c0:	46bd      	mov	sp, r7
 80004c2:	bc80      	pop	{r7}
 80004c4:	4770      	bx	lr
 80004c6:	bf00      	nop
 80004c8:	1000      	asrs	r0, r0, #32
 80004ca:	4002      	ands	r2, r0
 80004cc:	b480      	push	{r7}
 80004ce:	b083      	sub	sp, #12
 80004d0:	af00      	add	r7, sp, #0
 80004d2:	6078      	str	r0, [r7, #4]
 80004d4:	4b07      	ldr	r3, [pc, #28]	@ (0x80004f4)
 80004d6:	69db      	ldr	r3, [r3, #28]
 80004d8:	2101      	movs	r1, #1
 80004da:	687a      	ldr	r2, [r7, #4]
 80004dc:	fa01 f202 	lsl.w	r2, r1, r2
 80004e0:	43d2      	mvns	r2, r2
 80004e2:	4611      	mov	r1, r2
 80004e4:	4a03      	ldr	r2, [pc, #12]	@ (0x80004f4)
 80004e6:	400b      	ands	r3, r1
 80004e8:	61d3      	str	r3, [r2, #28]
 80004ea:	bf00      	nop
 80004ec:	370c      	adds	r7, #12
 80004ee:	46bd      	mov	sp, r7
 80004f0:	bc80      	pop	{r7}
 80004f2:	4770      	bx	lr
 80004f4:	1000      	asrs	r0, r0, #32
 80004f6:	4002      	ands	r2, r0
 80004f8:	b480      	push	{r7}
 80004fa:	b083      	sub	sp, #12
 80004fc:	af00      	add	r7, sp, #0
 80004fe:	6078      	str	r0, [r7, #4]
 8000500:	4b07      	ldr	r3, [pc, #28]	@ (0x8000520)
 8000502:	699b      	ldr	r3, [r3, #24]
 8000504:	2101      	movs	r1, #1
 8000506:	687a      	ldr	r2, [r7, #4]
 8000508:	fa01 f202 	lsl.w	r2, r1, r2
 800050c:	43d2      	mvns	r2, r2
 800050e:	4611      	mov	r1, r2
 8000510:	4a03      	ldr	r2, [pc, #12]	@ (0x8000520)
 8000512:	400b      	ands	r3, r1
 8000514:	6193      	str	r3, [r2, #24]
 8000516:	bf00      	nop
 8000518:	370c      	adds	r7, #12
 800051a:	46bd      	mov	sp, r7
 800051c:	bc80      	pop	{r7}
 800051e:	4770      	bx	lr
 8000520:	1000      	asrs	r0, r0, #32
 8000522:	4002      	ands	r2, r0
 8000524:	b480      	push	{r7}
 8000526:	b083      	sub	sp, #12
 8000528:	af00      	add	r7, sp, #0
 800052a:	6078      	str	r0, [r7, #4]
 800052c:	4b07      	ldr	r3, [pc, #28]	@ (0x800054c)
 800052e:	695b      	ldr	r3, [r3, #20]
 8000530:	2101      	movs	r1, #1
 8000532:	687a      	ldr	r2, [r7, #4]
 8000534:	fa01 f202 	lsl.w	r2, r1, r2
 8000538:	43d2      	mvns	r2, r2
 800053a:	4611      	mov	r1, r2
 800053c:	4a03      	ldr	r2, [pc, #12]	@ (0x800054c)
 800053e:	400b      	ands	r3, r1
 8000540:	6153      	str	r3, [r2, #20]
 8000542:	bf00      	nop
 8000544:	370c      	adds	r7, #12
 8000546:	46bd      	mov	sp, r7
 8000548:	bc80      	pop	{r7}
 800054a:	4770      	bx	lr
 800054c:	1000      	asrs	r0, r0, #32
 800054e:	4002      	ands	r2, r0
 8000550:	b580      	push	{r7, lr}
 8000552:	b082      	sub	sp, #8
 8000554:	af00      	add	r7, sp, #0
 8000556:	6078      	str	r0, [r7, #4]
 8000558:	6039      	str	r1, [r7, #0]
 800055a:	200e      	movs	r0, #14
 800055c:	f7ff ff8a 	bl	0x8000474
 8000560:	4b09      	ldr	r3, [pc, #36]	@ (0x8000588)
 8000562:	68db      	ldr	r3, [r3, #12]
 8000564:	4a08      	ldr	r2, [pc, #32]	@ (0x8000588)
 8000566:	f443 5300 	orr.w	r3, r3, #8192	@ 0x2000
 800056a:	60d3      	str	r3, [r2, #12]
 800056c:	4b06      	ldr	r3, [pc, #24]	@ (0x8000588)
 800056e:	4a06      	ldr	r2, [pc, #24]	@ (0x8000588)
 8000570:	68db      	ldr	r3, [r3, #12]
 8000572:	60d3      	str	r3, [r2, #12]
 8000574:	4b04      	ldr	r3, [pc, #16]	@ (0x8000588)
 8000576:	68db      	ldr	r3, [r3, #12]
 8000578:	4a03      	ldr	r2, [pc, #12]	@ (0x8000588)
 800057a:	f043 0308 	orr.w	r3, r3, #8
 800057e:	60d3      	str	r3, [r2, #12]
 8000580:	bf00      	nop
 8000582:	3708      	adds	r7, #8
 8000584:	46bd      	mov	sp, r7
 8000586:	bd80      	pop	{r7, pc}
 8000588:	3800      	subs	r0, #0
 800058a:	4001      	ands	r1, r0
 800058c:	b480      	push	{r7}
 800058e:	b083      	sub	sp, #12
 8000590:	af00      	add	r7, sp, #0
 8000592:	6078      	str	r0, [r7, #4]
 8000594:	460b      	mov	r3, r1
 8000596:	70fb      	strb	r3, [r7, #3]
 8000598:	4613      	mov	r3, r2
 800059a:	803b      	strh	r3, [r7, #0]
 800059c:	e00a      	b.n	0x80005b4
 800059e:	687b      	ldr	r3, [r7, #4]
 80005a0:	681a      	ldr	r2, [r3, #0]
 80005a2:	78fb      	ldrb	r3, [r7, #3]
 80005a4:	4013      	ands	r3, r2
 80005a6:	2b00      	cmp	r3, #0
 80005a8:	d001      	beq.n	0x80005ae
 80005aa:	78fb      	ldrb	r3, [r7, #3]
 80005ac:	e007      	b.n	0x80005be
 80005ae:	883b      	ldrh	r3, [r7, #0]
 80005b0:	3b01      	subs	r3, #1
 80005b2:	803b      	strh	r3, [r7, #0]
 80005b4:	883b      	ldrh	r3, [r7, #0]
 80005b6:	2b00      	cmp	r3, #0
 80005b8:	d1f1      	bne.n	0x800059e
 80005ba:	f04f 33ff 	mov.w	r3, #4294967295	@ 0xffffffff
 80005be:	4618      	mov	r0, r3
 80005c0:	370c      	adds	r7, #12
 80005c2:	46bd      	mov	sp, r7
 80005c4:	bc80      	pop	{r7}
 80005c6:	4770      	bx	lr
 80005c8:	b580      	push	{r7, lr}
 80005ca:	b082      	sub	sp, #8
 80005cc:	af00      	add	r7, sp, #0
 80005ce:	6078      	str	r0, [r7, #4]
 80005d0:	460b      	mov	r3, r1
 80005d2:	70fb      	strb	r3, [r7, #3]
 80005d4:	f44f 727a 	mov.w	r2, #1000	@ 0x3e8
 80005d8:	2140      	movs	r1, #64	@ 0x40
 80005da:	6878      	ldr	r0, [r7, #4]
 80005dc:	f7ff ffd6 	bl	0x800058c
 80005e0:	4603      	mov	r3, r0
 80005e2:	2b00      	cmp	r3, #0
 80005e4:	d002      	beq.n	0x80005ec
 80005e6:	78fa      	ldrb	r2, [r7, #3]
 80005e8:	687b      	ldr	r3, [r7, #4]
 80005ea:	605a      	str	r2, [r3, #4]
 80005ec:	bf00      	nop
 80005ee:	3708      	adds	r7, #8
 80005f0:	46bd      	mov	sp, r7
 80005f2:	bd80      	pop	{r7, pc}
 80005f4:	b580      	push	{r7, lr}
 80005f6:	b082      	sub	sp, #8
 80005f8:	af00      	add	r7, sp, #0
 80005fa:	6078      	str	r0, [r7, #4]
 80005fc:	f44f 727a 	mov.w	r2, #1000	@ 0x3e8
 8000600:	2120      	movs	r1, #32
 8000602:	6878      	ldr	r0, [r7, #4]
 8000604:	f7ff ffc2 	bl	0x800058c
 8000608:	687b      	ldr	r3, [r7, #4]
 800060a:	685b      	ldr	r3, [r3, #4]
 800060c:	b2db      	uxtb	r3, r3
 800060e:	4618      	mov	r0, r3
 8000610:	3708      	adds	r7, #8
 8000612:	46bd      	mov	sp, r7
 8000614:	bd80      	pop	{r7, pc}
 8000616:	b480      	push	{r7}
 8000618:	b083      	sub	sp, #12
 800061a:	af00      	add	r7, sp, #0
 800061c:	6078      	str	r0, [r7, #4]
 800061e:	6039      	str	r1, [r7, #0]
 8000620:	bf00      	nop
 8000622:	370c      	adds	r7, #12
 8000624:	46bd      	mov	sp, r7
 8000626:	bc80      	pop	{r7}
 8000628:	4770      	bx	lr
 800062a:	bf00      	nop
